target datalayout = "e-m:e-p270:32:32-p271:32:32-p272:64:64-i64:64-i128:128-f80:128-n8:16:32:64-S128"
target triple = "x86_64-unknown-linux-gnu"

%struct.cchar_t = type { i32, [5 x i32], i32 }

@screen = internal global ptr null, align 8
@vga_to_curses = internal global ptr null, align 8
@stdscr = external global ptr, align 8
@width = internal global i32 0, align 4
@screenpad = internal global ptr null, align 8
@px = internal global i32 0, align 4
@sminx = internal global i32 0, align 4
@smaxx = internal global i32 0, align 4
@py = internal global i32 0, align 4
@sminy = internal global i32 0, align 4
@smaxy = internal global i32 0, align 4

; Function Attrs: nounwind sspstrong uwtable
define internal void @g_autoptr_cleanup_generic_gfree(ptr noundef %p) #0 {
entry:
  %p.addr = alloca ptr, align 8
  %pp = alloca ptr, align 8
  store ptr %p, ptr %p.addr, align 8
  %0 = load ptr, ptr %p.addr, align 8
  store ptr %0, ptr %pp, align 8
  %1 = load ptr, ptr %pp, align 8
  %2 = load ptr, ptr %1, align 8
  call void @g_free(ptr noundef %2)
  ret void
}

; Function Attrs: nounwind sspstrong uwtable
define internal void @curses_update(ptr noundef %dcl, i32 noundef %x, i32 noundef %y, i32 noundef %w, i32 noundef %h) #0 {
entry:
  %dcl.addr = alloca ptr, align 8
  %x.addr = alloca i32, align 4
  %y.addr = alloca i32, align 4
  %w.addr = alloca i32, align 4
  %h.addr = alloca i32, align 4
  %line = alloca ptr, align 8
  %curses_line = alloca ptr, align 8
  %wch = alloca [5 x i32], align 16
  %attrs = alloca i32, align 4
  %colors = alloca i16, align 2
  %ret = alloca i32, align 4
  %ch = alloca i32, align 4
  %at = alloca i32, align 4
  %color_pair = alloca i16, align 2
  store ptr %dcl, ptr %dcl.addr, align 8
  store i32 %x, ptr %x.addr, align 4
  store i32 %y, ptr %y.addr, align 4
  store i32 %w, ptr %w.addr, align 4
  store i32 %h, ptr %h.addr, align 4
  %0 = load i32, ptr @width, align 4
  %conv = sext i32 %0 to i64
  %call = call noalias ptr @g_malloc_n(i64 noundef %conv, i64 noundef 28) #11
  store ptr %call, ptr %curses_line, align 8
  %1 = load ptr, ptr @screen, align 8
  %2 = load i32, ptr %y.addr, align 4
  %3 = load i32, ptr @width, align 4
  %mul = mul i32 %2, %3
  %idx.ext = sext i32 %mul to i64
  %add.ptr = getelementptr i32, ptr %1, i64 %idx.ext
  store ptr %add.ptr, ptr %line, align 8
  %4 = load i32, ptr %y.addr, align 4
  %5 = load i32, ptr %h.addr, align 4
  %add = add i32 %5, %4
  store i32 %add, ptr %h.addr, align 4
  br label %for.cond

for.cond:                                         ; preds = %for.inc33, %entry
  %6 = load i32, ptr %y.addr, align 4
  %7 = load i32, ptr %h.addr, align 4
  %cmp = icmp slt i32 %6, %7
  br i1 %cmp, label %for.body, label %for.end37

for.body:                                         ; preds = %for.cond
  store i32 0, ptr %x.addr, align 4
  br label %for.cond2

for.cond2:                                        ; preds = %for.inc, %for.body
  %8 = load i32, ptr %x.addr, align 4
  %9 = load i32, ptr @width, align 4
  %cmp3 = icmp slt i32 %8, %9
  br i1 %cmp3, label %for.body5, label %for.end

for.body5:                                        ; preds = %for.cond2
  %10 = load ptr, ptr %line, align 8
  %11 = load i32, ptr %x.addr, align 4
  %idxprom = sext i32 %11 to i64
  %arrayidx = getelementptr i32, ptr %10, i64 %idxprom
  %12 = load i32, ptr %arrayidx, align 4
  %and = and i32 %12, 255
  store i32 %and, ptr %ch, align 4
  %13 = load ptr, ptr %line, align 8
  %14 = load i32, ptr %x.addr, align 4
  %idxprom6 = sext i32 %14 to i64
  %arrayidx7 = getelementptr i32, ptr %13, i64 %idxprom6
  %15 = load i32, ptr %arrayidx7, align 4
  %and8 = and i32 %15, -256
  store i32 %and8, ptr %at, align 4
  %16 = load ptr, ptr %line, align 8
  %17 = load i32, ptr %x.addr, align 4
  %idxprom9 = sext i32 %17 to i64
  %arrayidx10 = getelementptr i32, ptr %16, i64 %idxprom9
  %18 = load i32, ptr %arrayidx10, align 4
  %conv11 = zext i32 %18 to i64
  %and12 = and i64 %conv11, 65280
  %shr = lshr i64 %and12, 8
  %conv13 = trunc i64 %shr to i32
  %conv14 = trunc i32 %conv13 to i16
  store i16 %conv14, ptr %color_pair, align 2
  %19 = load ptr, ptr @vga_to_curses, align 8
  %20 = load i32, ptr %ch, align 4
  %idxprom15 = zext i32 %20 to i64
  %arrayidx16 = getelementptr %struct.cchar_t, ptr %19, i64 %idxprom15
  %arraydecay = getelementptr inbounds [5 x i32], ptr %wch, i64 0, i64 0
  %call17 = call i32 @getcchar(ptr noundef %arrayidx16, ptr noundef %arraydecay, ptr noundef %attrs, ptr noundef %colors, ptr noundef null)
  store i32 %call17, ptr %ret, align 4
  %21 = load i32, ptr %ret, align 4
  %cmp18 = icmp eq i32 %21, -1
  br i1 %cmp18, label %if.then, label %lor.lhs.false

lor.lhs.false:                                    ; preds = %for.body5
  %arrayidx20 = getelementptr [5 x i32], ptr %wch, i64 0, i64 0
  %22 = load i32, ptr %arrayidx20, align 16
  %cmp21 = icmp eq i32 %22, 0
  br i1 %cmp21, label %if.then, label %if.end

if.then:                                          ; preds = %lor.lhs.false, %for.body5
  %23 = load i32, ptr %ch, align 4
  %arrayidx23 = getelementptr [5 x i32], ptr %wch, i64 0, i64 0
  store i32 %23, ptr %arrayidx23, align 16
  %arrayidx24 = getelementptr [5 x i32], ptr %wch, i64 0, i64 1
  store i32 0, ptr %arrayidx24, align 4
  br label %if.end

if.end:                                           ; preds = %if.then, %lor.lhs.false
  %24 = load ptr, ptr %curses_line, align 8
  %25 = load i32, ptr %x.addr, align 4
  %idxprom25 = sext i32 %25 to i64
  %arrayidx26 = getelementptr %struct.cchar_t, ptr %24, i64 %idxprom25
  %arraydecay27 = getelementptr inbounds [5 x i32], ptr %wch, i64 0, i64 0
  %26 = load i32, ptr %at, align 4
  %27 = load i16, ptr %color_pair, align 2
  %call28 = call i32 @setcchar(ptr noundef %arrayidx26, ptr noundef %arraydecay27, i32 noundef %26, i16 noundef signext %27, ptr noundef null)
  br label %for.inc

for.inc:                                          ; preds = %if.end
  %28 = load i32, ptr %x.addr, align 4
  %inc = add i32 %28, 1
  store i32 %inc, ptr %x.addr, align 4
  br label %for.cond2, !llvm.loop !11

for.end:                                          ; preds = %for.cond2
  %29 = load ptr, ptr @screenpad, align 8
  %30 = load i32, ptr %y.addr, align 4
  %call29 = call i32 @wmove(ptr noundef %29, i32 noundef %30, i32 noundef 0)
  %cmp30 = icmp eq i32 %call29, -1
  br i1 %cmp30, label %cond.true, label %cond.false

cond.true:                                        ; preds = %for.end
  br label %cond.end

cond.false:                                       ; preds = %for.end
  %31 = load ptr, ptr @screenpad, align 8
  %32 = load ptr, ptr %curses_line, align 8
  %33 = load i32, ptr @width, align 4
  %call32 = call i32 @wadd_wchnstr(ptr noundef %31, ptr noundef %32, i32 noundef %33)
  br label %cond.end

cond.end:                                         ; preds = %cond.false, %cond.true
  br label %for.inc33

for.inc33:                                        ; preds = %cond.end
  %34 = load i32, ptr %y.addr, align 4
  %inc34 = add i32 %34, 1
  store i32 %inc34, ptr %y.addr, align 4
  %35 = load i32, ptr @width, align 4
  %36 = load ptr, ptr %line, align 8
  %idx.ext35 = sext i32 %35 to i64
  %add.ptr36 = getelementptr i32, ptr %36, i64 %idx.ext35
  store ptr %add.ptr36, ptr %line, align 8
  br label %for.cond, !llvm.loop !12

for.end37:                                        ; preds = %for.cond
  %37 = load ptr, ptr @screenpad, align 8
  %38 = load i32, ptr @py, align 4
  %39 = load i32, ptr @px, align 4
  %40 = load i32, ptr @sminy, align 4
  %41 = load i32, ptr @sminx, align 4
  %42 = load i32, ptr @smaxy, align 4
  %sub = sub i32 %42, 1
  %43 = load i32, ptr @smaxx, align 4
  %sub38 = sub i32 %43, 1
  %call39 = call i32 @pnoutrefresh(ptr noundef %37, i32 noundef %38, i32 noundef %39, i32 noundef %40, i32 noundef %41, i32 noundef %sub, i32 noundef %sub38)
  %44 = load ptr, ptr @stdscr, align 8
  %call40 = call i32 @wrefresh(ptr noundef %44)
  call void @g_autoptr_cleanup_generic_gfree(ptr noundef %curses_line)
  ret void
}