; Function Attrs: nounwind sspstrong uwtable
define internal void @curses_update(ptr readnone captures(none) %dcl, i32 %x, i32 noundef %y, i32 %w, i32 noundef %h) #0 {
entry:
  %wch = alloca [5 x i32], align 16
  %attrs = alloca i32, align 4
  %colors = alloca i16, align 2
  %0 = load i32, ptr @width, align 4
  %conv = sext i32 %0 to i64
  %call = tail call noalias ptr @g_malloc_n(i64 noundef %conv, i64 noundef 28) #16
  %add = add i32 %h, %y
  %cmp19 = icmp slt i32 %y, %add
  br i1 %cmp19, label %for.cond2.preheader.lr.ph, label %for.end37

for.cond2.preheader.lr.ph:                        ; preds = %entry
  %1 = load ptr, ptr @screen, align 8
  %2 = load i32, ptr @width, align 4
  %mul = mul i32 %2, %y
  %idx.ext = sext i32 %mul to i64
  %add.ptr = getelementptr i32, ptr %1, i64 %idx.ext
  %arrayidx24 = getelementptr inbounds nuw i8, ptr %wch, i64 4
  br label %for.cond2.preheader

for.cond2.preheader:                              ; preds = %for.cond2.preheader.lr.ph, %for.inc33
  %3 = phi i32 [ %2, %for.cond2.preheader.lr.ph ], [ %14, %for.inc33 ]
  %y.addr.021 = phi i32 [ %y, %for.cond2.preheader.lr.ph ], [ %inc34, %for.inc33 ]
  %line.020 = phi ptr [ %add.ptr, %for.cond2.preheader.lr.ph ], [ %add.ptr36, %for.inc33 ]
  %cmp316 = icmp sgt i32 %3, 0
  br i1 %cmp316, label %for.body5, label %for.end

for.body5:                                        ; preds = %for.cond2.preheader, %if.end
  %indvars.iv = phi i64 [ %indvars.iv.next, %if.end ], [ 0, %for.cond2.preheader ]
  %arrayidx = getelementptr i32, ptr %line.020, i64 %indvars.iv
  %4 = load i32, ptr %arrayidx, align 4
  %and = and i32 %4, 255
  %and8 = and i32 %4, -256
  %5 = trunc i32 %4 to i16
  %6 = lshr i16 %5, 8
  %7 = load ptr, ptr @vga_to_curses, align 8
  %idxprom15 = zext nneg i32 %and to i64
  %arrayidx16 = getelementptr %struct.cchar_t, ptr %7, i64 %idxprom15
  %call17 = call i32 @getcchar(ptr noundef %arrayidx16, ptr noundef nonnull %wch, ptr noundef nonnull %attrs, ptr noundef nonnull %colors, ptr noundef null) #13
  %cmp18 = icmp eq i32 %call17, -1
  %8 = load i32, ptr %wch, align 16
  %cmp21 = icmp eq i32 %8, 0
  %or.cond = select i1 %cmp18, i1 true, i1 %cmp21
  br i1 %or.cond, label %if.then, label %if.end

if.then:                                          ; preds = %for.body5
  store i32 %and, ptr %wch, align 16
  store i32 0, ptr %arrayidx24, align 4
  br label %if.end

if.end:                                           ; preds = %for.body5, %if.then
  %arrayidx26 = getelementptr %struct.cchar_t, ptr %call, i64 %indvars.iv
  %call28 = call i32 @setcchar(ptr noundef %arrayidx26, ptr noundef nonnull %wch, i32 noundef %and8, i16 noundef signext %6, ptr noundef null) #13
  %indvars.iv.next = add nuw nsw i64 %indvars.iv, 1
  %9 = load i32, ptr @width, align 4
  %10 = sext i32 %9 to i64
  %cmp3 = icmp slt i64 %indvars.iv.next, %10
  br i1 %cmp3, label %for.body5, label %for.end, !llvm.loop !11

for.end:                                          ; preds = %if.end, %for.cond2.preheader
  %11 = load ptr, ptr @screenpad, align 8
  %call29 = call i32 @wmove(ptr noundef %11, i32 noundef %y.addr.021, i32 noundef 0) #13
  %cmp30 = icmp eq i32 %call29, -1
  br i1 %cmp30, label %for.inc33, label %cond.false

cond.false:                                       ; preds = %for.end
  %12 = load ptr, ptr @screenpad, align 8
  %13 = load i32, ptr @width, align 4
  %call32 = call i32 @wadd_wchnstr(ptr noundef %12, ptr noundef %call, i32 noundef %13) #13
  br label %for.inc33

for.inc33:                                        ; preds = %cond.false, %for.end
  %inc34 = add nsw i32 %y.addr.021, 1
  %14 = load i32, ptr @width, align 4
  %idx.ext35 = sext i32 %14 to i64
  %add.ptr36 = getelementptr i32, ptr %line.020, i64 %idx.ext35
  %exitcond.not = icmp eq i32 %inc34, %add
  br i1 %exitcond.not, label %for.end37, label %for.cond2.preheader, !llvm.loop !12

for.end37:                                        ; preds = %for.inc33, %entry
  %15 = load ptr, ptr @screenpad, align 8
  %16 = load i32, ptr @py, align 4
  %17 = load i32, ptr @px, align 4
  %18 = load i32, ptr @sminy, align 4
  %19 = load i32, ptr @sminx, align 4
  %20 = load i32, ptr @smaxy, align 4
  %sub = add i32 %20, -1
  %21 = load i32, ptr @smaxx, align 4
  %sub38 = add i32 %21, -1
  %call39 = call i32 @pnoutrefresh(ptr noundef %15, i32 noundef %16, i32 noundef %17, i32 noundef %18, i32 noundef %19, i32 noundef %sub, i32 noundef %sub38) #13
  %22 = load ptr, ptr @stdscr, align 8
  %call40 = call i32 @wrefresh(ptr noundef %22) #13
  call void @g_free(ptr noundef %call) #13
  ret void
}